target datalayout = "e-m:e-p270:32:32-p271:32:32-p272:64:64-i64:64-i128:128-f80:128-n8:16:32:64-S128"
target triple = "x86_64-pc-linux-gnu"

%struct.SDL_HIDAPI_Device = type { ptr, ptr, ptr, ptr, i16, i16, i16, ptr, %struct.SDL_GUID, i32, i32, i32, i32, i16, i16, i8, i32, i32, i32, ptr, ptr, ptr, ptr, %struct.SDL_AtomicInt, i32, ptr, i8, i8, i8, ptr, i32, ptr, ptr }
%struct.SDL_GUID = type { [16 x i8] }
%struct.SDL_AtomicInt = type { i32 }
%struct.GIP_Device = type { ptr, i64, i8, i8, i32, [8 x ptr] }
%struct.GIP_Attachment = type { ptr, i8, i32, i32, i8, i16, ptr, i32, i64, i32, i16, i16, i32, i64, i32, %struct.GIP_Metadata, i8, i8, i8, i8, i8, i32, i32, i64, i8, i8, i8, i8, i8, [64 x i8], i8, i8, i32, i32, i32, i32, i32, i32, i32, i8, i8, i32, i8, i32, i32 }
%struct.GIP_Metadata = type { i16, i16, %struct.GIP_DeviceMetadata, i8, ptr }
%struct.GIP_DeviceMetadata = type { i8, i8, i8, i8, [8 x i32], [8 x i32], ptr, ptr, ptr, ptr, i32 }
%struct.SDL_Joystick = type { i32, ptr, ptr, ptr, %struct.SDL_GUID, i16, i64, i8, i8, i32, ptr, i32, ptr, i32, ptr, i32, ptr, i32, ptr, i32, i32, ptr, i16, i16, i64, i64, i16, i16, i64, i64, i8, i8, i8, i64, i8, i32, i32, i32, i8, i32, ptr, i32, ptr, [3 x [3 x float]], i64, ptr, ptr, i32, i32, ptr }

@.str.52 = private unnamed_addr constant [17 x i8] c"Invalid joystick\00", align 1

; Function Attrs: nounwind uwtable
define internal ptr @HIDAPI_DriverGIP_FindAttachment(ptr noundef %0, ptr noundef %1) #0 {
  %3 = alloca ptr, align 8
  %4 = alloca ptr, align 8
  %5 = alloca ptr, align 8
  %6 = alloca ptr, align 8
  %7 = alloca i32, align 4
  %8 = alloca i32, align 4
  store ptr %0, ptr %4, align 8
  store ptr %1, ptr %5, align 8
  call void @llvm.lifetime.start.p0(i64 8, ptr %6) #6
  %9 = load ptr, ptr %4, align 8
  %10 = getelementptr inbounds nuw %struct.SDL_HIDAPI_Device, ptr %9, i32 0, i32 20
  %11 = load ptr, ptr %10, align 8
  store ptr %11, ptr %6, align 8
  call void @llvm.lifetime.start.p0(i64 4, ptr %7) #6
  store i32 0, ptr %7, align 4
  br label %12

12:                                               ; preds = %44, %2
  %13 = load i32, ptr %7, align 4
  %14 = icmp slt i32 %13, 8
  br i1 %14, label %15, label %47

15:                                               ; preds = %12
  %16 = load ptr, ptr %6, align 8
  %17 = getelementptr inbounds nuw %struct.GIP_Device, ptr %16, i32 0, i32 5
  %18 = load i32, ptr %7, align 4
  %19 = sext i32 %18 to i64
  %20 = getelementptr inbounds [8 x ptr], ptr %17, i64 0, i64 %19
  %21 = load ptr, ptr %20, align 8
  %22 = icmp ne ptr %21, null
  br i1 %22, label %23, label %43

23:                                               ; preds = %15
  %24 = load ptr, ptr %6, align 8
  %25 = getelementptr inbounds nuw %struct.GIP_Device, ptr %24, i32 0, i32 5
  %26 = load i32, ptr %7, align 4
  %27 = sext i32 %26 to i64
  %28 = getelementptr inbounds [8 x ptr], ptr %25, i64 0, i64 %27
  %29 = load ptr, ptr %28, align 8
  %30 = getelementptr inbounds nuw %struct.GIP_Attachment, ptr %29, i32 0, i32 2
  %31 = load i32, ptr %30, align 4
  %32 = load ptr, ptr %5, align 8
  %33 = getelementptr inbounds nuw %struct.SDL_Joystick, ptr %32, i32 0, i32 0
  %34 = load i32, ptr %33, align 8
  %35 = icmp eq i32 %31, %34
  br i1 %35, label %36, label %43

36:                                               ; preds = %23
  %37 = load ptr, ptr %6, align 8
  %38 = getelementptr inbounds nuw %struct.GIP_Device, ptr %37, i32 0, i32 5
  %39 = load i32, ptr %7, align 4
  %40 = sext i32 %39 to i64
  %41 = getelementptr inbounds [8 x ptr], ptr %38, i64 0, i64 %40
  %42 = load ptr, ptr %41, align 8
  store ptr %42, ptr %3, align 8
  store i32 1, ptr %8, align 4
  br label %48

43:                                               ; preds = %23, %15
  br label %44

44:                                               ; preds = %43
  %45 = load i32, ptr %7, align 4
  %46 = add nsw i32 %45, 1
  store i32 %46, ptr %7, align 4
  br label %12, !llvm.loop !27

47:                                               ; preds = %12
  store ptr null, ptr %3, align 8
  store i32 1, ptr %8, align 4
  br label %48

48:                                               ; preds = %47, %36
  call void @llvm.lifetime.end.p0(i64 4, ptr %7) #6
  call void @llvm.lifetime.end.p0(i64 8, ptr %6) #6
  %49 = load ptr, ptr %3, align 8
  ret ptr %49
}

; Function Attrs: nounwind uwtable
define internal zeroext i1 @HIDAPI_DriverGIP_OpenJoystick(ptr noundef %0, ptr noundef %1) #0 {
  %3 = alloca i1, align 1
  %4 = alloca ptr, align 8
  %5 = alloca ptr, align 8
  %6 = alloca ptr, align 8
  %7 = alloca i32, align 4
  store ptr %0, ptr %4, align 8
  store ptr %1, ptr %5, align 8
  call void @llvm.lifetime.start.p0(i64 8, ptr %6) #6
  %8 = load ptr, ptr %4, align 8
  %9 = load ptr, ptr %5, align 8
  %10 = call ptr @HIDAPI_DriverGIP_FindAttachment(ptr noundef %8, ptr noundef %9)
  store ptr %10, ptr %6, align 8
  %11 = load ptr, ptr %6, align 8
  %12 = icmp ne ptr %11, null
  br i1 %12, label %15, label %13

13:                                               ; preds = %2
  %14 = call zeroext i1 (ptr, ...) @SDL_SetError_REAL(ptr noundef @.str.52)
  store i1 %14, ptr %3, align 1
  store i32 1, ptr %7, align 4
  br label %150

15:                                               ; preds = %2
  call void @SDL_AssertJoysticksLocked()
  %16 = load ptr, ptr %6, align 8
  %17 = getelementptr inbounds nuw %struct.GIP_Attachment, ptr %16, i32 0, i32 25
  store i8 0, ptr %17, align 1
  %18 = load ptr, ptr %6, align 8
  %19 = getelementptr inbounds nuw %struct.GIP_Attachment, ptr %18, i32 0, i32 26
  store i8 0, ptr %19, align 2
  %20 = load ptr, ptr %6, align 8
  %21 = getelementptr inbounds nuw %struct.GIP_Attachment, ptr %20, i32 0, i32 27
  store i8 0, ptr %21, align 1
  %22 = load ptr, ptr %6, align 8
  %23 = getelementptr inbounds nuw %struct.GIP_Attachment, ptr %22, i32 0, i32 28
  store i8 0, ptr %23, align 4
  %24 = load ptr, ptr %6, align 8
  %25 = getelementptr inbounds nuw %struct.GIP_Attachment, ptr %24, i32 0, i32 22
  store i32 0, ptr %25, align 4
  %26 = load ptr, ptr %6, align 8
  %27 = getelementptr inbounds nuw %struct.GIP_Attachment, ptr %26, i32 0, i32 23
  store i64 0, ptr %27, align 8
  %28 = load ptr, ptr %6, align 8
  %29 = getelementptr inbounds nuw %struct.GIP_Attachment, ptr %28, i32 0, i32 24
  store i8 0, ptr %29, align 8
  %30 = load ptr, ptr %6, align 8
  %31 = getelementptr inbounds nuw %struct.GIP_Attachment, ptr %30, i32 0, i32 29
  %32 = getelementptr inbounds [64 x i8], ptr %31, i64 0, i64 0
  call void @llvm.memset.p0.i64(ptr align 1 %32, i8 0, i64 64, i1 false)
  %33 = load ptr, ptr %5, align 8
  %34 = getelementptr inbounds nuw %struct.SDL_Joystick, ptr %33, i32 0, i32 15
  store i32 11, ptr %34, align 8
  %35 = load ptr, ptr %4, align 8
  %36 = getelementptr inbounds nuw %struct.SDL_HIDAPI_Device, ptr %35, i32 0, i32 4
  %37 = load i16, ptr %36, align 8
  %38 = zext i16 %37 to i32
  %39 = icmp eq i32 %38, 1118
  br i1 %39, label %40, label %79

40:                                               ; preds = %15
  %41 = load ptr, ptr %4, align 8
  %42 = getelementptr inbounds nuw %struct.SDL_HIDAPI_Device, ptr %41, i32 0, i32 5
  %43 = load i16, ptr %42, align 2
  %44 = zext i16 %43 to i32
  %45 = icmp eq i32 %44, 739
  br i1 %45, label %46, label %51

46:                                               ; preds = %40
  %47 = load ptr, ptr %6, align 8
  %48 = getelementptr inbounds nuw %struct.GIP_Attachment, ptr %47, i32 0, i32 41
  store i32 28, ptr %48, align 8
  %49 = load ptr, ptr %6, align 8
  %50 = getelementptr inbounds nuw %struct.GIP_Attachment, ptr %49, i32 0, i32 36
  store i32 1, ptr %50, align 8
  br label %78

51:                                               ; preds = %40
  %52 = load ptr, ptr %4, align 8
  %53 = getelementptr inbounds nuw %struct.SDL_HIDAPI_Device, ptr %52, i32 0, i32 5
  %54 = load i16, ptr %53, align 2
  %55 = zext i16 %54 to i32
  %56 = icmp eq i32 %55, 2816
  br i1 %56, label %57, label %77

57:                                               ; preds = %51
  %58 = load ptr, ptr %6, align 8
  %59 = getelementptr inbounds nuw %struct.GIP_Attachment, ptr %58, i32 0, i32 41
  store i32 14, ptr %59, align 8
  %60 = load ptr, ptr %6, align 8
  %61 = getelementptr inbounds nuw %struct.GIP_Attachment, ptr %60, i32 0, i32 36
  store i32 3, ptr %61, align 8
  %62 = load ptr, ptr %6, align 8
  %63 = getelementptr inbounds nuw %struct.GIP_Attachment, ptr %62, i32 0, i32 10
  %64 = load i16, ptr %63, align 4
  %65 = zext i16 %64 to i32
  %66 = icmp eq i32 %65, 5
  br i1 %66, label %67, label %76

67:                                               ; preds = %57
  %68 = load ptr, ptr %6, align 8
  %69 = getelementptr inbounds nuw %struct.GIP_Attachment, ptr %68, i32 0, i32 11
  %70 = load i16, ptr %69, align 2
  %71 = zext i16 %70 to i32
  %72 = icmp slt i32 %71, 17
  br i1 %72, label %73, label %76

73:                                               ; preds = %67
  %74 = load ptr, ptr %6, align 8
  %75 = getelementptr inbounds nuw %struct.GIP_Attachment, ptr %74, i32 0, i32 36
  store i32 2, ptr %75, align 8
  br label %76

76:                                               ; preds = %73, %67, %57
  br label %77

77:                                               ; preds = %76, %51
  br label %78

78:                                               ; preds = %77, %46
  br label %79

79:                                               ; preds = %78, %15
  %80 = load ptr, ptr %6, align 8
  %81 = getelementptr inbounds nuw %struct.GIP_Attachment, ptr %80, i32 0, i32 41
  %82 = load i32, ptr %81, align 8
  %83 = icmp sgt i32 %82, 0
  br i1 %83, label %84, label %95

84:                                               ; preds = %79
  %85 = load ptr, ptr %5, align 8
  %86 = getelementptr inbounds nuw %struct.SDL_Joystick, ptr %85, i32 0, i32 15
  %87 = load i32, ptr %86, align 8
  %88 = trunc i32 %87 to i8
  %89 = load ptr, ptr %6, align 8
  %90 = getelementptr inbounds nuw %struct.GIP_Attachment, ptr %89, i32 0, i32 40
  store i8 %88, ptr %90, align 1
  %91 = load ptr, ptr %5, align 8
  %92 = getelementptr inbounds nuw %struct.SDL_Joystick, ptr %91, i32 0, i32 15
  %93 = load i32, ptr %92, align 8
  %94 = add nsw i32 %93, 4
  store i32 %94, ptr %92, align 8
  br label %95

95:                                               ; preds = %84, %79
  %96 = load ptr, ptr %6, align 8
  %97 = getelementptr inbounds nuw %struct.GIP_Attachment, ptr %96, i32 0, i32 37
  %98 = load i32, ptr %97, align 4
  %99 = and i32 %98, 1
  %100 = icmp ne i32 %99, 0
  br i1 %100, label %101, label %112

101:                                              ; preds = %95
  %102 = load ptr, ptr %5, align 8
  %103 = getelementptr inbounds nuw %struct.SDL_Joystick, ptr %102, i32 0, i32 15
  %104 = load i32, ptr %103, align 8
  %105 = trunc i32 %104 to i8
  %106 = load ptr, ptr %6, align 8
  %107 = getelementptr inbounds nuw %struct.GIP_Attachment, ptr %106, i32 0, i32 39
  store i8 %105, ptr %107, align 4
  %108 = load ptr, ptr %5, align 8
  %109 = getelementptr inbounds nuw %struct.SDL_Joystick, ptr %108, i32 0, i32 15
  %110 = load i32, ptr %109, align 8
  %111 = add nsw i32 %110, 1
  store i32 %111, ptr %109, align 8
  br label %112

112:                                              ; preds = %101, %95
  %113 = load ptr, ptr %6, align 8
  %114 = getelementptr inbounds nuw %struct.GIP_Attachment, ptr %113, i32 0, i32 43
  %115 = load i32, ptr %114, align 8
  %116 = icmp sgt i32 %115, 0
  br i1 %116, label %117, label %131

117:                                              ; preds = %112
  %118 = load ptr, ptr %5, align 8
  %119 = getelementptr inbounds nuw %struct.SDL_Joystick, ptr %118, i32 0, i32 15
  %120 = load i32, ptr %119, align 8
  %121 = trunc i32 %120 to i8
  %122 = load ptr, ptr %6, align 8
  %123 = getelementptr inbounds nuw %struct.GIP_Attachment, ptr %122, i32 0, i32 42
  store i8 %121, ptr %123, align 4
  %124 = load ptr, ptr %6, align 8
  %125 = getelementptr inbounds nuw %struct.GIP_Attachment, ptr %124, i32 0, i32 43
  %126 = load i32, ptr %125, align 8
  %127 = load ptr, ptr %5, align 8
  %128 = getelementptr inbounds nuw %struct.SDL_Joystick, ptr %127, i32 0, i32 15
  %129 = load i32, ptr %128, align 8
  %130 = add nsw i32 %129, %126
  store i32 %130, ptr %128, align 8
  br label %131

131:                                              ; preds = %117, %112
  %132 = load ptr, ptr %5, align 8
  %133 = getelementptr inbounds nuw %struct.SDL_Joystick, ptr %132, i32 0, i32 9
  store i32 6, ptr %133, align 4
  %134 = load ptr, ptr %6, align 8
  %135 = getelementptr inbounds nuw %struct.GIP_Attachment, ptr %134, i32 0, i32 35
  %136 = load i32, ptr %135, align 4
  %137 = icmp eq i32 %136, 3
  br i1 %137, label %138, label %147

138:                                              ; preds = %131
  %139 = load ptr, ptr %6, align 8
  %140 = getelementptr inbounds nuw %struct.GIP_Attachment, ptr %139, i32 0, i32 44
  %141 = load i32, ptr %140, align 4
  %142 = sub nsw i32 %141, 1
  %143 = load ptr, ptr %5, align 8
  %144 = getelementptr inbounds nuw %struct.SDL_Joystick, ptr %143, i32 0, i32 9
  %145 = load i32, ptr %144, align 4
  %146 = add nsw i32 %145, %142
  store i32 %146, ptr %144, align 4
  br label %147

147:                                              ; preds = %138, %131
  %148 = load ptr, ptr %5, align 8
  %149 = getelementptr inbounds nuw %struct.SDL_Joystick, ptr %148, i32 0, i32 13
  store i32 1, ptr %149, align 8
  store i1 true, ptr %3, align 1
  store i32 1, ptr %7, align 4
  br label %150

150:                                              ; preds = %147, %13
  call void @llvm.lifetime.end.p0(i64 8, ptr %6) #6
  %151 = load i1, ptr %3, align 1
  ret i1 %151
}