; Function Attrs: nounwind uwtable
define internal zeroext i1 @HIDAPI_DriverGIP_OpenJoystick(ptr noundef readonly captures(none) %0, ptr noundef captures(none) %1) #0 {
  %3 = getelementptr i8, ptr %0, i64 112
  %.val = load ptr, ptr %3, align 8
  %4 = getelementptr inbounds nuw i8, ptr %.val, i64 24
  br label %5

5:                                                ; preds = %13, %2
  %indvars.iv.i = phi i64 [ 0, %2 ], [ %indvars.iv.next.i, %13 ]
  %6 = getelementptr inbounds nuw [8 x ptr], ptr %4, i64 0, i64 %indvars.iv.i
  %7 = load ptr, ptr %6, align 8
  %.not.i = icmp eq ptr %7, null
  br i1 %.not.i, label %13, label %8

8:                                                ; preds = %5
  %9 = getelementptr inbounds nuw i8, ptr %7, i64 12
  %10 = load i32, ptr %9, align 4
  %11 = load i32, ptr %1, align 8
  %12 = icmp eq i32 %10, %11
  br i1 %12, label %HIDAPI_DriverGIP_FindAttachment.exit, label %13

13:                                               ; preds = %8, %5
  %indvars.iv.next.i = add nuw nsw i64 %indvars.iv.i, 1
  %exitcond.not.i = icmp eq i64 %indvars.iv.next.i, 8
  br i1 %exitcond.not.i, label %14, label %5, !llvm.loop !12

14:                                               ; preds = %13
  %15 = tail call zeroext i1 (ptr, ...) @SDL_SetError_REAL(ptr noundef nonnull @.str.52) #10
  br label %79

HIDAPI_DriverGIP_FindAttachment.exit:             ; preds = %8
  tail call void @SDL_AssertJoysticksLocked() #10
  %16 = getelementptr inbounds nuw i8, ptr %7, i64 228
  %17 = getelementptr inbounds nuw i8, ptr %1, i64 112
  tail call void @llvm.memset.p0.i64(ptr noundef nonnull align 4 dereferenceable(81) %16, i8 0, i64 81, i1 false)
  store i32 11, ptr %17, align 8
  %18 = getelementptr inbounds nuw i8, ptr %0, i64 32
  %19 = load i16, ptr %18, align 8
  %20 = icmp eq i16 %19, 1118
  br i1 %20, label %21, label %38

21:                                               ; preds = %HIDAPI_DriverGIP_FindAttachment.exit
  %22 = getelementptr inbounds nuw i8, ptr %0, i64 34
  %23 = load i16, ptr %22, align 2
  switch i16 %23, label %38 [
    i16 739, label %24
    i16 2816, label %27
  ]

24:                                               ; preds = %21
  %25 = getelementptr inbounds nuw i8, ptr %7, i64 344
  store i32 28, ptr %25, align 8
  %26 = getelementptr inbounds nuw i8, ptr %7, i64 328
  store i32 1, ptr %26, align 8
  br label %38

27:                                               ; preds = %21
  %28 = getelementptr inbounds nuw i8, ptr %7, i64 344
  store i32 14, ptr %28, align 8
  %29 = getelementptr inbounds nuw i8, ptr %7, i64 328
  store i32 3, ptr %29, align 8
  %30 = getelementptr inbounds nuw i8, ptr %7, i64 52
  %31 = load i16, ptr %30, align 4
  %32 = icmp eq i16 %31, 5
  br i1 %32, label %33, label %38

33:                                               ; preds = %27
  %34 = getelementptr inbounds nuw i8, ptr %7, i64 54
  %35 = load i16, ptr %34, align 2
  %36 = icmp ult i16 %35, 17
  br i1 %36, label %37, label %38

37:                                               ; preds = %33
  store i32 2, ptr %29, align 8
  br label %38

38:                                               ; preds = %21, %24, %27, %33, %37, %HIDAPI_DriverGIP_FindAttachment.exit
  %39 = getelementptr inbounds nuw i8, ptr %7, i64 344
  %40 = load i32, ptr %39, align 8
  %41 = icmp sgt i32 %40, 0
  br i1 %41, label %42, label %48

42:                                               ; preds = %38
  %43 = load i32, ptr %17, align 8
  %44 = trunc i32 %43 to i8
  %45 = getelementptr inbounds nuw i8, ptr %7, i64 341
  store i8 %44, ptr %45, align 1
  %46 = load i32, ptr %17, align 8
  %47 = add nsw i32 %46, 4
  store i32 %47, ptr %17, align 8
  br label %48

48:                                               ; preds = %42, %38
  %49 = getelementptr inbounds nuw i8, ptr %7, i64 332
  %50 = load i32, ptr %49, align 4
  %51 = and i32 %50, 1
  %.not43 = icmp eq i32 %51, 0
  br i1 %.not43, label %58, label %52

52:                                               ; preds = %48
  %53 = load i32, ptr %17, align 8
  %54 = trunc i32 %53 to i8
  %55 = getelementptr inbounds nuw i8, ptr %7, i64 340
  store i8 %54, ptr %55, align 4
  %56 = load i32, ptr %17, align 8
  %57 = add nsw i32 %56, 1
  store i32 %57, ptr %17, align 8
  br label %58

58:                                               ; preds = %52, %48
  %59 = getelementptr inbounds nuw i8, ptr %7, i64 352
  %60 = load i32, ptr %59, align 8
  %61 = icmp sgt i32 %60, 0
  br i1 %61, label %62, label %68

62:                                               ; preds = %58
  %63 = load i32, ptr %17, align 8
  %64 = trunc i32 %63 to i8
  %65 = getelementptr inbounds nuw i8, ptr %7, i64 348
  store i8 %64, ptr %65, align 4
  %66 = load i32, ptr %17, align 8
  %67 = add nsw i32 %66, %60
  store i32 %67, ptr %17, align 8
  br label %68

68:                                               ; preds = %62, %58
  %69 = getelementptr inbounds nuw i8, ptr %1, i64 68
  store i32 6, ptr %69, align 4
  %70 = getelementptr inbounds nuw i8, ptr %7, i64 324
  %71 = load i32, ptr %70, align 4
  %72 = icmp eq i32 %71, 3
  br i1 %72, label %73, label %77

73:                                               ; preds = %68
  %74 = getelementptr inbounds nuw i8, ptr %7, i64 356
  %75 = load i32, ptr %74, align 4
  %76 = add nsw i32 %75, 5
  store i32 %76, ptr %69, align 4
  br label %77

77:                                               ; preds = %73, %68
  %78 = getelementptr inbounds nuw i8, ptr %1, i64 96
  store i32 1, ptr %78, align 8
  br label %79

79:                                               ; preds = %77, %14
  %.0 = phi i1 [ true, %77 ], [ %15, %14 ]
  ret i1 %.0
}